; Function Attrs: nounwind uwtable
define noalias nonnull ptr @l_Lean_DeclarationRange_ofStringPositions(ptr noundef %0, ptr noundef %1, ptr noundef %2) local_unnamed_addr #1 {
  %4 = ptrtoint ptr %0 to i64
  %5 = and i64 %4, 1
  %.not = icmp eq i64 %5, 0
  br i1 %.not, label %6, label %lean_inc.exit11

6:                                                ; preds = %3
  %.val.i = load i32, ptr %0, align 4, !tbaa !4
  %7 = icmp sgt i32 %.val.i, 0
  br i1 %7, label %8, label %10, !prof !9

8:                                                ; preds = %6
  %9 = add nuw i32 %.val.i, 1
  store i32 %9, ptr %0, align 4, !tbaa !4
  br label %13

10:                                               ; preds = %6
  %.not.i12 = icmp eq i32 %.val.i, 0
  br i1 %.not.i12, label %13, label %11

11:                                               ; preds = %10
  tail call void @lean_inc_ref_cold(ptr noundef nonnull %0) #4
  br label %13

lean_inc.exit11:                                  ; preds = %3
  %12 = tail call ptr @l_Lean_FileMap_toPosition(ptr noundef %0, ptr noundef %1) #4
  br label %lean_inc.exit

13:                                               ; preds = %11, %10, %8
  %14 = tail call ptr @l_Lean_FileMap_toPosition(ptr noundef nonnull %0, ptr noundef %1) #4
  %.val.i13 = load i32, ptr %0, align 4, !tbaa !4
  %15 = icmp sgt i32 %.val.i13, 0
  br i1 %15, label %16, label %18, !prof !9

16:                                               ; preds = %13
  %17 = add nuw i32 %.val.i13, 1
  store i32 %17, ptr %0, align 4, !tbaa !4
  br label %lean_inc.exit

18:                                               ; preds = %13
  %.not.i14 = icmp eq i32 %.val.i13, 0
  br i1 %.not.i14, label %lean_inc.exit, label %19

19:                                               ; preds = %18
  tail call void @lean_inc_ref_cold(ptr noundef nonnull %0) #4
  br label %lean_inc.exit

lean_inc.exit:                                    ; preds = %19, %18, %16, %lean_inc.exit11
  %20 = phi ptr [ %12, %lean_inc.exit11 ], [ %14, %16 ], [ %14, %18 ], [ %14, %19 ]
  %21 = tail call ptr @l_Lean_FileMap_toPosition(ptr noundef %0, ptr noundef %2) #4
  %22 = tail call ptr @l_Lean_DeclarationRange_ofFilePositions(ptr noundef %0, ptr noundef %20, ptr noundef %21)
  br i1 %.not, label %23, label %lean_dec.exit

23:                                               ; preds = %lean_inc.exit
  %24 = load i32, ptr %0, align 4, !tbaa !4
  %25 = icmp sgt i32 %24, 1
  br i1 %25, label %26, label %28, !prof !9

26:                                               ; preds = %23
  %27 = add nsw i32 %24, -1
  store i32 %27, ptr %0, align 4, !tbaa !4
  br label %lean_dec.exit

28:                                               ; preds = %23
  %.not.i = icmp eq i32 %24, 0
  br i1 %.not.i, label %lean_dec.exit, label %29

29:                                               ; preds = %28
  tail call void @lean_dec_ref_cold(ptr noundef nonnull %0) #4
  br label %lean_dec.exit

lean_dec.exit:                                    ; preds = %29, %28, %26, %lean_inc.exit
  ret ptr %22
}